; Function Attrs: nounwind uwtable
define nonnull ptr @l_String_reduceBoolPred(ptr noundef %0, ptr noundef %1, ptr noundef %2, ptr noundef %3, ptr readnone captures(none) %4, ptr readnone captures(none) %5, ptr readnone captures(none) %6, ptr readnone captures(none) %7, ptr readnone captures(none) %8, ptr readnone captures(none) %9, ptr readnone captures(none) %10, ptr noundef %11) local_unnamed_addr #0 {
  %13 = tail call zeroext i8 @l_Lean_Expr_isAppOfArity(ptr noundef %3, ptr noundef %0, ptr noundef %1) #4
  %14 = icmp eq i8 %13, 0
  br i1 %14, label %15, label %32

15:                                               ; preds = %12
  %16 = ptrtoint ptr %2 to i64
  %17 = and i64 %16, 1
  %.not = icmp eq i64 %17, 0
  br i1 %.not, label %18, label %lean_dec.exit

18:                                               ; preds = %15
  %19 = load i32, ptr %2, align 4, !tbaa !4
  %20 = icmp sgt i32 %19, 1
  br i1 %20, label %21, label %23, !prof !11

21:                                               ; preds = %18
  %22 = add nsw i32 %19, -1
  store i32 %22, ptr %2, align 4, !tbaa !4
  br label %lean_dec.exit

23:                                               ; preds = %18
  %.not.i = icmp eq i32 %19, 0
  br i1 %.not.i, label %lean_dec.exit, label %24

24:                                               ; preds = %23
  tail call void @lean_dec_ref_cold(ptr noundef nonnull %2) #4
  br label %lean_dec.exit

lean_dec.exit:                                    ; preds = %24, %23, %21, %15
  %25 = load ptr, ptr @l_String_reduceAppend___lambda__1___closed__1, align 8, !tbaa !9
  tail call void @lean_inc_heartbeat() #4
  %26 = tail call noalias ptr @mi_malloc_small(i64 noundef 24) #4
  %27 = icmp eq ptr %26, null
  br i1 %27, label %28, label %lean_alloc_ctor.exit

28:                                               ; preds = %lean_dec.exit
  tail call void @lean_internal_panic_out_of_memory() #5
  unreachable

lean_alloc_ctor.exit:                             ; preds = %lean_dec.exit
  %29 = getelementptr inbounds nuw i8, ptr %26, i64 4
  store i32 1, ptr %26, align 4, !tbaa !4
  store i32 131096, ptr %29, align 4
  %30 = getelementptr inbounds nuw i8, ptr %26, i64 8
  store ptr %25, ptr %30, align 8, !tbaa !9
  %31 = getelementptr inbounds nuw i8, ptr %26, i64 16
  store ptr %11, ptr %31, align 8, !tbaa !9
  br label %34

32:                                               ; preds = %12
  %33 = tail call ptr @l_String_reduceBoolPred___lambda__1(ptr noundef %3, ptr noundef %2, ptr nonnull poison, ptr poison, ptr poison, ptr poison, ptr poison, ptr poison, ptr poison, ptr poison, ptr noundef %11)
  br label %34

34:                                               ; preds = %32, %lean_alloc_ctor.exit
  %.0 = phi ptr [ %26, %lean_alloc_ctor.exit ], [ %33, %32 ]
  ret ptr %.0
}